
_main:

;dt.c,21 :: 		void main()
;dt.c,23 :: 		ADCON1 = 0x04;
	MOVLW      4
	MOVWF      ADCON1+0
;dt.c,24 :: 		Lcd_Init();
	CALL       _Lcd_Init+0
;dt.c,25 :: 		Lcd_Cmd(_LCD_CURSOR_OFF);
	MOVLW      12
	MOVWF      FARG_Lcd_Cmd_out_char+0
	CALL       _Lcd_Cmd+0
;dt.c,27 :: 		do
L_main0:
;dt.c,29 :: 		Lcd_Cmd(_LCD_CLEAR);
	MOVLW      1
	MOVWF      FARG_Lcd_Cmd_out_char+0
	CALL       _Lcd_Cmd+0
;dt.c,30 :: 		Lcd_out(1,1, "Temperature:");
	MOVLW      1
	MOVWF      FARG_Lcd_Out_row+0
	MOVLW      1
	MOVWF      FARG_Lcd_Out_column+0
	MOVLW      ?lstr1_dt+0
	MOVWF      FARG_Lcd_Out_text+0
	CALL       _Lcd_Out+0
;dt.c,31 :: 		t = ADC_Read(0);
	CLRF       FARG_ADC_Read_channel+0
	CALL       _ADC_Read+0
	MOVF       R0+0, 0
	MOVWF      _t+0
	MOVF       R0+1, 0
	MOVWF      _t+1
;dt.c,33 :: 		t = t * 0.4887;
	CALL       _Int2Double+0
	MOVLW      227
	MOVWF      R4+0
	MOVLW      54
	MOVWF      R4+1
	MOVLW      122
	MOVWF      R4+2
	MOVLW      125
	MOVWF      R4+3
	CALL       _Mul_32x32_FP+0
	CALL       _Double2Int+0
	MOVF       R0+0, 0
	MOVWF      _t+0
	MOVF       R0+1, 0
	MOVWF      _t+1
;dt.c,34 :: 		a = t%10;
	MOVLW      10
	MOVWF      R4+0
	MOVLW      0
	MOVWF      R4+1
	CALL       _Div_16x16_S+0
	MOVF       R8+0, 0
	MOVWF      R0+0
	MOVF       R8+1, 0
	MOVWF      R0+1
	MOVF       R0+0, 0
	MOVWF      _a+0
;dt.c,35 :: 		lcd[2] = a + '0';
	MOVLW      48
	ADDWF      R0+0, 0
	MOVWF      _lcd+2
;dt.c,37 :: 		t = t/10;
	MOVLW      10
	MOVWF      R4+0
	MOVLW      0
	MOVWF      R4+1
	MOVF       _t+0, 0
	MOVWF      R0+0
	MOVF       _t+1, 0
	MOVWF      R0+1
	CALL       _Div_16x16_S+0
	MOVF       R0+0, 0
	MOVWF      _t+0
	MOVF       R0+1, 0
	MOVWF      _t+1
;dt.c,38 :: 		a = t%10;
	MOVLW      10
	MOVWF      R4+0
	MOVLW      0
	MOVWF      R4+1
	CALL       _Div_16x16_S+0
	MOVF       R8+0, 0
	MOVWF      R0+0
	MOVF       R8+1, 0
	MOVWF      R0+1
	MOVF       R0+0, 0
	MOVWF      _a+0
;dt.c,39 :: 		lcd[1] = a + '0';
	MOVLW      48
	ADDWF      R0+0, 0
	MOVWF      _lcd+1
;dt.c,41 :: 		t = t/10;
	MOVLW      10
	MOVWF      R4+0
	MOVLW      0
	MOVWF      R4+1
	MOVF       _t+0, 0
	MOVWF      R0+0
	MOVF       _t+1, 0
	MOVWF      R0+1
	CALL       _Div_16x16_S+0
	MOVF       R0+0, 0
	MOVWF      _t+0
	MOVF       R0+1, 0
	MOVWF      _t+1
;dt.c,42 :: 		a = t%10;
	MOVLW      10
	MOVWF      R4+0
	MOVLW      0
	MOVWF      R4+1
	CALL       _Div_16x16_S+0
	MOVF       R8+0, 0
	MOVWF      R0+0
	MOVF       R8+1, 0
	MOVWF      R0+1
	MOVF       R0+0, 0
	MOVWF      _a+0
;dt.c,43 :: 		lcd[0] = a + '0';
	MOVLW      48
	ADDWF      R0+0, 0
	MOVWF      _lcd+0
;dt.c,45 :: 		Lcd_out(2,1,lcd);
	MOVLW      2
	MOVWF      FARG_Lcd_Out_row+0
	MOVLW      1
	MOVWF      FARG_Lcd_Out_column+0
	MOVLW      _lcd+0
	MOVWF      FARG_Lcd_Out_text+0
	CALL       _Lcd_Out+0
;dt.c,46 :: 		Delay_ms(100);
	MOVLW      2
	MOVWF      R11+0
	MOVLW      4
	MOVWF      R12+0
	MOVLW      186
	MOVWF      R13+0
L_main3:
	DECFSZ     R13+0, 1
	GOTO       L_main3
	DECFSZ     R12+0, 1
	GOTO       L_main3
	DECFSZ     R11+0, 1
	GOTO       L_main3
	NOP
;dt.c,47 :: 		}while(1);
	GOTO       L_main0
;dt.c,48 :: 		}
	GOTO       $+0
; end of _main
